; ModuleID = '38/1384.c'
source_filename = "38/1384.c"
target datalayout = "e-m:e-p270:32:32-p271:32:32-p272:64:64-i64:64-f80:128-n8:16:32:64-S128"
target triple = "x86_64-pc-linux-gnu"

@.str = private unnamed_addr constant [3 x i8] c"%d\00", align 1
@.str.1 = private unnamed_addr constant [4 x i8] c"%lf\00", align 1
@.str.2 = private unnamed_addr constant [7 x i8] c"%.5lf\0A\00", align 1

; Function Attrs: noinline nounwind uwtable
define dso_local i32 @main() #0 {
  %1 = alloca i32, align 4
  %2 = alloca i32, align 4
  %3 = alloca i32, align 4
  %4 = alloca i8*, align 8
  %5 = alloca i64, align 8
  %6 = alloca i32, align 4
  %7 = alloca i32, align 4
  %8 = alloca i8*, align 8
  %9 = alloca i64, align 8
  %10 = alloca double, align 8
  %11 = alloca double, align 8
  %12 = alloca double, align 8
  store i32 0, i32* %1, align 4
  %13 = call i32 (i8*, ...) @__isoc99_scanf(i8* getelementptr inbounds ([3 x i8], [3 x i8]* @.str, i64 0, i64 0), i32* %2)
  %14 = load i32, i32* %2, align 4
  %15 = zext i32 %14 to i64
  %16 = call i8* @llvm.stacksave()
  store i8* %16, i8** %4, align 8
  %17 = alloca double, i64 %15, align 16
  store i64 %15, i64* %5, align 8
  store i32 0, i32* %3, align 4
  br label %18

18:                                               ; preds = %84, %0
  %19 = load i32, i32* %3, align 4
  %20 = load i32, i32* %2, align 4
  %21 = icmp slt i32 %19, %20
  br i1 %21, label %22, label %87

22:                                               ; preds = %18
  %23 = call i32 (i8*, ...) @__isoc99_scanf(i8* getelementptr inbounds ([3 x i8], [3 x i8]* @.str, i64 0, i64 0), i32* %6)
  %24 = load i32, i32* %6, align 4
  %25 = zext i32 %24 to i64
  %26 = call i8* @llvm.stacksave()
  store i8* %26, i8** %8, align 8
  %27 = alloca double, i64 %25, align 16
  store i64 %25, i64* %9, align 8
  store double 0.000000e+00, double* %10, align 8
  store i32 0, i32* %7, align 4
  br label %28

28:                                               ; preds = %46, %22
  %29 = load i32, i32* %7, align 4
  %30 = load i32, i32* %6, align 4
  %31 = icmp slt i32 %29, %30
  br i1 %31, label %32, label %49

32:                                               ; preds = %28
  %33 = load i32, i32* %7, align 4
  %34 = sext i32 %33 to i64
  %35 = getelementptr inbounds double, double* %27, i64 %34
  %36 = call i32 (i8*, ...) @__isoc99_scanf(i8* getelementptr inbounds ([4 x i8], [4 x i8]* @.str.1, i64 0, i64 0), double* %35)
  %37 = load i32, i32* %7, align 4
  %38 = sext i32 %37 to i64
  %39 = getelementptr inbounds double, double* %27, i64 %38
  %40 = load double, double* %39, align 8
  %41 = load i32, i32* %6, align 4
  %42 = sitofp i32 %41 to double
  %43 = fdiv double %40, %42
  %44 = load double, double* %10, align 8
  %45 = fadd double %44, %43
  store double %45, double* %10, align 8
  br label %46

46:                                               ; preds = %32
  %47 = load i32, i32* %7, align 4
  %48 = add nsw i32 %47, 1
  store i32 %48, i32* %7, align 4
  br label %28

49:                                               ; preds = %28
  store double 0.000000e+00, double* %11, align 8
  store i32 0, i32* %7, align 4
  br label %50

50:                                               ; preds = %73, %49
  %51 = load i32, i32* %7, align 4
  %52 = load i32, i32* %6, align 4
  %53 = icmp slt i32 %51, %52
  br i1 %53, label %54, label %76

54:                                               ; preds = %50
  %55 = load i32, i32* %7, align 4
  %56 = sext i32 %55 to i64
  %57 = getelementptr inbounds double, double* %27, i64 %56
  %58 = load double, double* %57, align 8
  %59 = load double, double* %10, align 8
  %60 = fsub double %58, %59
  %61 = load i32, i32* %7, align 4
  %62 = sext i32 %61 to i64
  %63 = getelementptr inbounds double, double* %27, i64 %62
  %64 = load double, double* %63, align 8
  %65 = load double, double* %10, align 8
  %66 = fsub double %64, %65
  %67 = fmul double %60, %66
  %68 = load i32, i32* %6, align 4
  %69 = sitofp i32 %68 to double
  %70 = fdiv double %67, %69
  %71 = load double, double* %11, align 8
  %72 = fadd double %71, %70
  store double %72, double* %11, align 8
  br label %73

73:                                               ; preds = %54
  %74 = load i32, i32* %7, align 4
  %75 = add nsw i32 %74, 1
  store i32 %75, i32* %7, align 4
  br label %50

76:                                               ; preds = %50
  %77 = load double, double* %11, align 8
  %78 = call double @sqrt(double %77) #2
  store double %78, double* %12, align 8
  %79 = load double, double* %12, align 8
  %80 = load i32, i32* %3, align 4
  %81 = sext i32 %80 to i64
  %82 = getelementptr inbounds double, double* %17, i64 %81
  store double %79, double* %82, align 8
  %83 = load i8*, i8** %8, align 8
  call void @llvm.stackrestore(i8* %83)
  br label %84

84:                                               ; preds = %76
  %85 = load i32, i32* %3, align 4
  %86 = add nsw i32 %85, 1
  store i32 %86, i32* %3, align 4
  br label %18

87:                                               ; preds = %18
  store i32 0, i32* %3, align 4
  br label %88

88:                                               ; preds = %98, %87
  %89 = load i32, i32* %3, align 4
  %90 = load i32, i32* %2, align 4
  %91 = icmp slt i32 %89, %90
  br i1 %91, label %92, label %101

92:                                               ; preds = %88
  %93 = load i32, i32* %3, align 4
  %94 = sext i32 %93 to i64
  %95 = getelementptr inbounds double, double* %17, i64 %94
  %96 = load double, double* %95, align 8
  %97 = call i32 (i8*, ...) @printf(i8* getelementptr inbounds ([7 x i8], [7 x i8]* @.str.2, i64 0, i64 0), double %96)
  br label %98

98:                                               ; preds = %92
  %99 = load i32, i32* %3, align 4
  %100 = add nsw i32 %99, 1
  store i32 %100, i32* %3, align 4
  br label %88

101:                                              ; preds = %88
  store i32 0, i32* %1, align 4
  %102 = load i8*, i8** %4, align 8
  call void @llvm.stackrestore(i8* %102)
  %103 = load i32, i32* %1, align 4
  ret i32 %103
}

declare dso_local i32 @__isoc99_scanf(i8*, ...) #1

; Function Attrs: nounwind
declare i8* @llvm.stacksave() #2

; Function Attrs: nounwind
declare dso_local double @sqrt(double) #3

; Function Attrs: nounwind
declare void @llvm.stackrestore(i8*) #2

declare dso_local i32 @printf(i8*, ...) #1


!llvm.module.flags = !{!0}
!llvm.ident = !{!1}

!0 = !{i32 1, !"wchar_size", i32 4}
!1 = !{!"clang version 10.0.0-4ubuntu1 "}
